; Function Attrs: nounwind uwtable
define internal i32 @multissl_init() #2 {
  %1 = load ptr, ptr @Curl_ssl, align 8
  %.not.i = icmp ne ptr %1, @Curl_ssl_multi
  %2 = load ptr, ptr @available_backends, align 16
  %.not15.i = icmp eq ptr %2, null
  %or.cond = select i1 %.not.i, i1 true, i1 %.not15.i
  br i1 %or.cond, label %multissl_setup.exit, label %3

3:                                                ; preds = %0
  %4 = tail call ptr @curl_getenv(ptr noundef nonnull @.str.14) #18
  %.not16.i = icmp eq ptr %4, null
  %5 = load ptr, ptr @available_backends, align 16
  %.not1720.i = icmp eq ptr %5, null
  %or.cond.i = select i1 %.not16.i, i1 true, i1 %.not1720.i
  br i1 %or.cond.i, label %.loopexit.i, label %.lr.ph.i

6:                                                ; preds = %.lr.ph.i
  %indvars.iv.next.i = add nuw nsw i64 %indvars.iv.i, 1
  %7 = getelementptr inbounds nuw [2 x ptr], ptr @available_backends, i64 0, i64 %indvars.iv.next.i
  %8 = load ptr, ptr %7, align 8
  %.not17.i = icmp eq ptr %8, null
  br i1 %.not17.i, label %.loopexit.loopexit.i, label %.lr.ph.i, !llvm.loop !5

.lr.ph.i:                                         ; preds = %3, %6
  %indvars.iv.i = phi i64 [ %indvars.iv.next.i, %6 ], [ 0, %3 ]
  %9 = phi ptr [ %8, %6 ], [ %5, %3 ]
  %10 = getelementptr inbounds nuw i8, ptr %9, i64 8
  %11 = load ptr, ptr %10, align 8
  %12 = tail call i32 @curl_strequal(ptr noundef nonnull %4, ptr noundef %11) #18
  %.not18.i = icmp eq i32 %12, 0
  br i1 %.not18.i, label %6, label %13

13:                                               ; preds = %.lr.ph.i
  %14 = getelementptr inbounds nuw [2 x ptr], ptr @available_backends, i64 0, i64 %indvars.iv.i
  %15 = load ptr, ptr %14, align 8
  br label %.loopexit.i

.loopexit.loopexit.i:                             ; preds = %6
  %.pre.i = load ptr, ptr @available_backends, align 16
  br label %.loopexit.i

.loopexit.i:                                      ; preds = %3, %.loopexit.loopexit.i, %13
  %.sink = phi ptr [ %15, %13 ], [ %.pre.i, %.loopexit.loopexit.i ], [ %5, %3 ]
  store ptr %.sink, ptr @Curl_ssl, align 8
  %16 = load ptr, ptr @Curl_cfree, align 8
  tail call void %16(ptr noundef %4) #18
  %17 = load ptr, ptr @Curl_ssl, align 8
  %18 = getelementptr inbounds nuw i8, ptr %17, i64 32
  %19 = load ptr, ptr %18, align 8
  %20 = tail call i32 %19() #18
  br label %multissl_setup.exit

multissl_setup.exit:                              ; preds = %0, %.loopexit.i
  %.0 = phi i32 [ %20, %.loopexit.i ], [ 1, %0 ]
  ret i32 %.0
}